target datalayout = "e-m:e-p270:32:32-p271:32:32-p272:64:64-i64:64-i128:128-f80:128-n8:16:32:64-S128"
target triple = "x86_64-pc-linux-gnu"

@ett_msg_rr = internal global [43 x i32] zeroinitializer, align 16
@proto_register_gmr1_rr.ett = internal global [77 x ptr] zeroinitializer, align 16
@ett_msg_ccch = internal global i32 0, align 4
@ett_rr_pd = internal global i32 0, align 4
@ett_gmr1_ie_rr = hidden global [32 x i32] zeroinitializer, align 16
@.str.189 = private unnamed_addr constant [24 x i8] c"GEO-Mobile Radio (1) RR\00", align 1
@.str.190 = private unnamed_addr constant [9 x i8] c"GMR-1 RR\00", align 1
@.str.191 = private unnamed_addr constant [8 x i8] c"gmr1.rr\00", align 1
@proto_gmr1_rr = internal global i32 0, align 4
@.str.192 = private unnamed_addr constant [26 x i8] c"GEO-Mobile Radio (1) CCCH\00", align 1
@.str.193 = private unnamed_addr constant [11 x i8] c"GMR-1 CCCH\00", align 1
@.str.194 = private unnamed_addr constant [10 x i8] c"gmr1.ccch\00", align 1
@proto_gmr1_ccch = internal global i32 0, align 4
@.str.195 = private unnamed_addr constant [10 x i8] c"gmr1_ccch\00", align 1

; Function Attrs: null_pointer_is_valid sspstrong uwtable
define hidden void @proto_register_gmr1_rr() #1 {
  %1 = alloca ptr, align 8
  %2 = alloca i32, align 4
  %3 = alloca i32, align 4
  call void @llvm.lifetime.start.p0(i64 8, ptr %1) #5
  call void @llvm.lifetime.start.p0(i64 4, ptr %2) #5
  call void @llvm.lifetime.start.p0(i64 4, ptr %3) #5
  store ptr @ett_msg_ccch, ptr @proto_register_gmr1_rr.ett, align 16
  store ptr @ett_rr_pd, ptr getelementptr ([77 x ptr], ptr @proto_register_gmr1_rr.ett, i64 0, i64 1), align 8
  store i32 2, ptr %2, align 4
  store i32 0, ptr %3, align 4
  br label %4

4:                                                ; preds = %14, %0
  %5 = load i32, ptr %3, align 4
  %6 = icmp ult i32 %5, 32
  br i1 %6, label %7, label %19

7:                                                ; preds = %4
  %8 = load i32, ptr %3, align 4
  %9 = zext i32 %8 to i64
  %10 = getelementptr [32 x i32], ptr @ett_gmr1_ie_rr, i64 0, i64 %9
  %11 = load i32, ptr %2, align 4
  %12 = zext i32 %11 to i64
  %13 = getelementptr [77 x ptr], ptr @proto_register_gmr1_rr.ett, i64 0, i64 %12
  store ptr %10, ptr %13, align 8
  br label %14

14:                                               ; preds = %7
  %15 = load i32, ptr %3, align 4
  %16 = add i32 %15, 1
  store i32 %16, ptr %3, align 4
  %17 = load i32, ptr %2, align 4
  %18 = add i32 %17, 1
  store i32 %18, ptr %2, align 4
  br label %4, !llvm.loop !10

19:                                               ; preds = %4
  store i32 0, ptr %3, align 4
  br label %20

20:                                               ; preds = %31, %19
  %21 = load i32, ptr %3, align 4
  %22 = zext i32 %21 to i64
  %23 = icmp ult i64 %22, 43
  br i1 %23, label %24, label %36

24:                                               ; preds = %20
  %25 = load i32, ptr %3, align 4
  %26 = zext i32 %25 to i64
  %27 = getelementptr [43 x i32], ptr @ett_msg_rr, i64 0, i64 %26
  %28 = load i32, ptr %2, align 4
  %29 = zext i32 %28 to i64
  %30 = getelementptr [77 x ptr], ptr @proto_register_gmr1_rr.ett, i64 0, i64 %29
  store ptr %27, ptr %30, align 8
  br label %31

31:                                               ; preds = %24
  %32 = load i32, ptr %3, align 4
  %33 = add i32 %32, 1
  store i32 %33, ptr %3, align 4
  %34 = load i32, ptr %2, align 4
  %35 = add i32 %34, 1
  store i32 %35, ptr %2, align 4
  br label %20, !llvm.loop !11

36:                                               ; preds = %20
  call void @proto_register_subtree_array(ptr noundef @proto_register_gmr1_rr.ett, i32 noundef 77)
  %37 = call i32 @proto_register_protocol(ptr noundef @.str.189, ptr noundef @.str.190, ptr noundef @.str.191)
  store i32 %37, ptr @proto_gmr1_rr, align 4
  %38 = load i32, ptr @proto_gmr1_rr, align 4
  call void @proto_register_field_array(i32 noundef %38, ptr noundef @proto_register_gmr1_rr.hf, i32 noundef 103)
  %39 = load i32, ptr @proto_gmr1_rr, align 4
  %40 = call ptr @expert_register_protocol(i32 noundef %39)
  store ptr %40, ptr %1, align 8
  %41 = load ptr, ptr %1, align 8
  call void @expert_register_field_array(ptr noundef %41, ptr noundef @proto_register_gmr1_rr.ei, i32 noundef 1)
  %42 = call i32 @proto_register_protocol(ptr noundef @.str.192, ptr noundef @.str.193, ptr noundef @.str.194)
  store i32 %42, ptr @proto_gmr1_ccch, align 4
  %43 = load i32, ptr @proto_gmr1_ccch, align 4
  %44 = call ptr @register_dissector(ptr noundef @.str.195, ptr noundef @dissect_gmr1_ccch, i32 noundef %43)
  call void @llvm.lifetime.end.p0(i64 4, ptr %3) #5
  call void @llvm.lifetime.end.p0(i64 4, ptr %2) #5
  call void @llvm.lifetime.end.p0(i64 8, ptr %1) #5
  ret void
}