; Function Attrs: null_pointer_is_valid sspstrong uwtable
define hidden void @proto_register_gmr1_rr() local_unnamed_addr #1 {
  store ptr @ett_msg_ccch, ptr @proto_register_gmr1_rr.ett, align 16
  store ptr @ett_rr_pd, ptr getelementptr inbounds nuw (i8, ptr @proto_register_gmr1_rr.ett, i64 8), align 8
  br label %1

1:                                                ; preds = %0, %1
  %indvars.iv17 = phi i64 [ 2, %0 ], [ %indvars.iv.next18, %1 ]
  %indvars.iv = phi i64 [ 0, %0 ], [ %indvars.iv.next, %1 ]
  %2 = getelementptr [32 x i32], ptr @ett_gmr1_ie_rr, i64 0, i64 %indvars.iv
  %3 = getelementptr [77 x ptr], ptr @proto_register_gmr1_rr.ett, i64 0, i64 %indvars.iv17
  store ptr %2, ptr %3, align 8
  %indvars.iv.next = add nuw nsw i64 %indvars.iv, 1
  %indvars.iv.next18 = add nuw nsw i64 %indvars.iv17, 1
  %exitcond.not = icmp eq i64 %indvars.iv.next, 32
  br i1 %exitcond.not, label %.preheader, label %1, !llvm.loop !10

.preheader:                                       ; preds = %1, %.preheader
  %indvars.iv24 = phi i64 [ %indvars.iv.next25, %.preheader ], [ 34, %1 ]
  %indvars.iv22 = phi i64 [ %indvars.iv.next23, %.preheader ], [ 0, %1 ]
  %4 = getelementptr [43 x i32], ptr @ett_msg_rr, i64 0, i64 %indvars.iv22
  %5 = getelementptr [77 x ptr], ptr @proto_register_gmr1_rr.ett, i64 0, i64 %indvars.iv24
  store ptr %4, ptr %5, align 8
  %indvars.iv.next23 = add nuw nsw i64 %indvars.iv22, 1
  %indvars.iv.next25 = add nuw nsw i64 %indvars.iv24, 1
  %exitcond29.not = icmp eq i64 %indvars.iv.next23, 43
  br i1 %exitcond29.not, label %6, label %.preheader, !llvm.loop !11

6:                                                ; preds = %.preheader
  tail call void @proto_register_subtree_array(ptr noundef nonnull @proto_register_gmr1_rr.ett, i32 noundef 77)
  %7 = tail call i32 @proto_register_protocol(ptr noundef nonnull @.str.189, ptr noundef nonnull @.str.190, ptr noundef nonnull @.str.191)
  store i32 %7, ptr @proto_gmr1_rr, align 4
  tail call void @proto_register_field_array(i32 noundef %7, ptr noundef nonnull @proto_register_gmr1_rr.hf, i32 noundef 103)
  %8 = load i32, ptr @proto_gmr1_rr, align 4
  %9 = tail call ptr @expert_register_protocol(i32 noundef %8)
  tail call void @expert_register_field_array(ptr noundef %9, ptr noundef nonnull @proto_register_gmr1_rr.ei, i32 noundef 1)
  %10 = tail call i32 @proto_register_protocol(ptr noundef nonnull @.str.192, ptr noundef nonnull @.str.193, ptr noundef nonnull @.str.194)
  store i32 %10, ptr @proto_gmr1_ccch, align 4
  %11 = tail call ptr @register_dissector(ptr noundef nonnull @.str.195, ptr noundef nonnull @dissect_gmr1_ccch, i32 noundef %10)
  ret void
}